; Function Attrs: mustprogress nofree norecurse nosync nounwind willreturn memory(argmem: read) uwtable
define hidden noundef range(i32 -1, 2) i32 @_ZNK4cvc58internal19RealAlgebraicNumber3sgnEv(ptr noundef nonnull readonly align 8 captures(none) dereferenceable(32) %0) local_unnamed_addr #9 align 2 {
  %2 = getelementptr inbounds nuw i8, ptr %0, i64 4
  %3 = load i32, ptr %2, align 4, !tbaa !34
  %4 = icmp ne i32 %3, 0
  %5 = zext i1 %4 to i32
  %.inv.i = icmp sgt i32 %3, -1
  %6 = select i1 %.inv.i, i32 %5, i32 -1
  ret i32 %6
}